Certificate:
    Data:
        Version: 3 (0x2)
        Serial Number: 13135752980835099350 (0xb64b91bd67f462d6)
    Signature Algorithm: sha256WithRSAEncryption
        Issuer: CN=Monaca
        Validity
            Not Before: Jul 16 10:44:39 2016 GMT
            Not After : Jul 16 10:44:39 2019 GMT
        Subject: CN=monaca-debug-app
        Subject Public Key Info:
            Public Key Algorithm: rsaEncryption
                Public-Key: (2048 bit)
                Modulus:
                    00:a9:a5:2e:8b:86:f9:df:99:b6:e2:ae:cf:9e:59:
                    77:c2:1c:a6:51:ef:4c:7f:be:f0:11:9a:65:31:4b:
                    e4:03:18:2d:04:aa:ca:72:e2:ed:f0:df:bc:9b:5a:
                    1d:33:d4:d3:a3:4c:62:3d:15:05:bb:17:07:c8:ca:
                    57:d0:a0:d8:e7:1a:09:01:99:44:df:7b:26:3b:b8:
                    d4:06:13:a4:7e:8b:40:0e:88:88:ba:18:dd:ca:56:
                    96:ba:27:de:5a:5e:67:c5:c9:e3:db:89:86:76:83:
                    07:c4:40:4a:74:98:13:b0:83:09:d0:12:33:cd:3c:
                    55:05:a1:e3:2a:1a:4d:3a:6b:6a:ec:1e:c0:ff:7b:
                    c6:9c:c9:7f:a7:b5:cf:11:08:14:83:ea:ed:ee:5c:
                    43:d6:97:c3:47:61:77:19:31:a8:2f:e0:ae:3e:61:
                    d8:9c:30:9e:19:e5:04:d7:a8:bb:e5:db:c6:0f:ae:
                    43:8c:42:fb:ce:5e:0d:59:6d:f5:d1:1c:19:e2:06:
                    c2:ac:4b:ea:3b:a2:47:ea:9b:7e:fe:6a:fc:58:4b:
                    5e:d7:f0:d2:6b:b7:34:c7:56:67:d7:1c:58:f1:58:
                    d5:fb:af:e1:a0:30:77:da:1c:82:e1:92:6c:45:da:
                    24:de:97:f4:5f:d0:fc:35:0a:7f:f3:fa:07:76:e7:
                    2a:31
                Exponent: 65537 (0x10001)
        X509v3 extensions:
            X509v3 Basic Constraints: 
                CA:FALSE
            Netscape Comment: 
                OpenSSL Generated Certificate
            X509v3 Subject Key Identifier: 
                DF:08:92:93:DD:9A:99:D1:B5:46:E6:2F:3C:47:93:5A:80:19:56:EF
            X509v3 Authority Key Identifier: 
                keyid:E1:C2:82:2D:04:9F:BC:50:9C:53:B3:61:5B:6D:6F:70:F6:CA:4F:01

            X509v3 Extended Key Usage: 
                Code Signing
    Signature Algorithm: sha256WithRSAEncryption
         5d:c3:1a:13:0b:44:01:58:54:a0:12:01:db:d5:77:34:a8:77:
         a8:ec:52:ab:9e:34:e7:c2:db:10:c9:3a:60:e0:75:29:58:92:
         6c:45:6a:3e:a3:53:04:c3:50:16:77:5a:b9:50:2b:a3:aa:86:
         8f:17:36:b9:15:76:df:f3:e7:3f:eb:1f:7f:95:c4:ee:35:8f:
         4e:a5:e0:24:c3:00:42:10:ac:16:5c:71:ef:8b:df:1e:cd:8f:
         56:dc:c2:7e:f5:67:f4:b4:3e:87:9f:c0:e2:81:98:ca:e5:ae:
         9c:e1:cd:c5:db:41:af:f2:5a:4f:23:a2:83:49:46:02:8a:d0:
         9e:05:45:a8:62:7a:a3:2c:f4:81:70:f8:e4:6a:c2:ae:8a:fe:
         b6:e1:2e:35:f7:5c:ab:11:be:bd:c7:0a:f9:ca:b7:dc:91:84:
         ad:09:56:e7:f7:3d:f9:e6:ba:ef:de:9e:14:c9:f6:5e:ad:5b:
         cc:86:2a:c6:81:f5:7e:2d:21:62:c7:dc:29:47:f5:8e:dc:8a:
         a5:f8:fd:de:fe:e5:20:29:05:83:b1:25:ab:97:c4:17:4c:34:
         df:78:50:f7:c3:d4:50:3a:9e:b1:6c:11:8d:a9:dd:ea:c8:c5:
         ca:8f:60:b9:08:b4:c7:3d:4a:3f:95:7f:ea:9e:fa:74:94:fa:
         d6:ee:ce:fa
-----BEGIN CERTIFICATE-----
MIIDQTCCAimgAwIBAgIJALZLkb1n9GLWMA0GCSqGSIb3DQEBCwUAMBExDzANBgNV
BAMTBk1vbmFjYTAeFw0xNjA3MTYxMDQ0MzlaFw0xOTA3MTYxMDQ0MzlaMBsxGTAX
BgNVBAMTEG1vbmFjYS1kZWJ1Zy1hcHAwggEiMA0GCSqGSIb3DQEBAQUAA4IBDwAw
ggEKAoIBAQCppS6Lhvnfmbbirs+eWXfCHKZR70x/vvARmmUxS+QDGC0Eqspy4u3w
37ybWh0z1NOjTGI9FQW7FwfIylfQoNjnGgkBmUTfeyY7uNQGE6R+i0AOiIi6GN3K
Vpa6J95aXmfFyePbiYZ2gwfEQEp0mBOwgwnQEjPNPFUFoeMqGk06a2rsHsD/e8ac
yX+ntc8RCBSD6u3uXEPWl8NHYXcZMagv4K4+YdicMJ4Z5QTXqLvl28YPrkOMQvvO
Xg1ZbfXRHBniBsKsS+o7okfqm37+avxYS17X8NJrtzTHVmfXHFjxWNX7r+GgMHfa
HILhkmxF2iTel/Rf0Pw1Cn/z+gd25yoxAgMBAAGjgZEwgY4wCQYDVR0TBAIwADAs
BglghkgBhvhCAQ0EHxYdT3BlblNTTCBHZW5lcmF0ZWQgQ2VydGlmaWNhdGUwHQYD
VR0OBBYEFN8IkpPdmpnRtUbmLzxHk1qAGVbvMB8GA1UdIwQYMBaAFOHCgi0En7xQ
nFOzYVttb3D2yk8BMBMGA1UdJQQMMAoGCCsGAQUFBwMDMA0GCSqGSIb3DQEBCwUA
A4IBAQBdwxoTC0QBWFSgEgHb1Xc0qHeo7FKrnjTnwtsQyTpg4HUpWJJsRWo+o1ME
w1AWd1q5UCujqoaPFza5FXbf8+c/6x9/lcTuNY9OpeAkwwBCEKwWXHHvi98ezY9W
3MJ+9Wf0tD6Hn8DigZjK5a6c4c3F20Gv8lpPI6KDSUYCitCeBUWoYnqjLPSBcPjk
asKuiv624S4191yrEb69xwr5yrfckYStCVbn9z355rrv3p4UyfZerVvMhirGgfV+
LSFix9wpR/WO3Iql+P3e/uUgKQWDsSWrl8QXTDTfeFD3w9RQOp6xbBGNqd3qyMXK
j2C5CLTHPUo/lX/qnvp0lPrW7s76
-----END CERTIFICATE-----
